target datalayout = "e-m:e-p270:32:32-p271:32:32-p272:64:64-i64:64-i128:128-f80:128-n8:16:32:64-S128"
target triple = "x86_64-pc-linux-gnu"

%struct.AVFilterContext = type { ptr, ptr, ptr, ptr, ptr, i32, ptr, ptr, i32, ptr, ptr, i32, i32, ptr, ptr, ptr, ptr, i32, ptr, i32, i32 }
%struct.MorphoContext = type { ptr, %struct.FFFrameSync, [4 x %struct.chord_set], [4 x %struct.IPlane], [4 x %struct.IPlane], [4 x %struct.IPlane], [4 x %struct.IPlane], [64 x [2 x [4 x %struct.LUT]]], i32, i32, i32, [4 x i32], [4 x i32], [4 x i32], [4 x i32], i32, i32, i32, [4 x i32], ptr, ptr, ptr }
%struct.FFFrameSync = type { ptr, ptr, i32, %struct.AVRational, i64, ptr, ptr, i32, i32, i8, i8, ptr, i32, i32, i32, i32 }
%struct.AVRational = type { i32, i32 }
%struct.chord_set = type { ptr, i32, i32, ptr, i32, i32, i32, i32, i32, i32 }
%struct.IPlane = type { ptr, i32, i32, i32, i32, i32, ptr, ptr, ptr, ptr, ptr, ptr }
%struct.LUT = type { ptr, ptr, i32, i32, i32, i32, i32, i32 }
%struct.AVFilterLink = type { ptr, ptr, ptr, ptr, i32, i32, i32, i32, %struct.AVRational, i32, i32, i32, %struct.AVChannelLayout, %struct.AVRational, ptr, i32, %struct.AVFilterFormatsConfig, %struct.AVFilterFormatsConfig }
%struct.AVChannelLayout = type { i32, i32, %union.anon.1, ptr }
%union.anon.1 = type { i64 }
%struct.AVFilterFormatsConfig = type { ptr, ptr, ptr, ptr, ptr }
%struct.AVPixFmtDescriptor = type { ptr, i8, i8, i8, i64, [4 x %struct.AVComponentDescriptor], ptr }
%struct.AVComponentDescriptor = type { i32, i32, i32, i32, i32 }

@.str.4 = private unnamed_addr constant [30 x i8] c"Assertion %s failed at %s:%d\0A\00", align 1
@.str.5 = private unnamed_addr constant [49 x i8] c"ctx->inputs[0]->format == ctx->inputs[1]->format\00", align 1
@.str.6 = private unnamed_addr constant [24 x i8] c"libavfilter/vf_morpho.c\00", align 1

; Function Attrs: nounwind uwtable
define internal i32 @config_input_structure(ptr noundef %0) #0 {
  %2 = alloca ptr, align 8
  %3 = alloca ptr, align 8
  %4 = alloca ptr, align 8
  %5 = alloca ptr, align 8
  store ptr %0, ptr %2, align 8, !tbaa !28
  call void @llvm.lifetime.start.p0(i64 8, ptr %3) #12
  %6 = load ptr, ptr %2, align 8, !tbaa !28
  %7 = getelementptr inbounds nuw %struct.AVFilterLink, ptr %6, i32 0, i32 5
  %8 = load i32, ptr %7, align 4, !tbaa !30
  %9 = call ptr @av_pix_fmt_desc_get(i32 noundef %8)
  store ptr %9, ptr %3, align 8, !tbaa !38
  call void @llvm.lifetime.start.p0(i64 8, ptr %4) #12
  %10 = load ptr, ptr %2, align 8, !tbaa !28
  %11 = getelementptr inbounds nuw %struct.AVFilterLink, ptr %10, i32 0, i32 2
  %12 = load ptr, ptr %11, align 8, !tbaa !40
  store ptr %12, ptr %4, align 8, !tbaa !4
  call void @llvm.lifetime.start.p0(i64 8, ptr %5) #12
  %13 = load ptr, ptr %2, align 8, !tbaa !28
  %14 = getelementptr inbounds nuw %struct.AVFilterLink, ptr %13, i32 0, i32 2
  %15 = load ptr, ptr %14, align 8, !tbaa !40
  %16 = getelementptr inbounds nuw %struct.AVFilterContext, ptr %15, i32 0, i32 9
  %17 = load ptr, ptr %16, align 8, !tbaa !9
  store ptr %17, ptr %5, align 8, !tbaa !22
  br label %18

18:                                               ; preds = %1
  %19 = load ptr, ptr %4, align 8, !tbaa !4
  %20 = getelementptr inbounds nuw %struct.AVFilterContext, ptr %19, i32 0, i32 4
  %21 = load ptr, ptr %20, align 8, !tbaa !58
  %22 = getelementptr inbounds ptr, ptr %21, i64 0
  %23 = load ptr, ptr %22, align 8, !tbaa !28
  %24 = getelementptr inbounds nuw %struct.AVFilterLink, ptr %23, i32 0, i32 5
  %25 = load i32, ptr %24, align 4, !tbaa !30
  %26 = load ptr, ptr %4, align 8, !tbaa !4
  %27 = getelementptr inbounds nuw %struct.AVFilterContext, ptr %26, i32 0, i32 4
  %28 = load ptr, ptr %27, align 8, !tbaa !58
  %29 = getelementptr inbounds ptr, ptr %28, i64 1
  %30 = load ptr, ptr %29, align 8, !tbaa !28
  %31 = getelementptr inbounds nuw %struct.AVFilterLink, ptr %30, i32 0, i32 5
  %32 = load i32, ptr %31, align 4, !tbaa !30
  %33 = icmp eq i32 %25, %32
  br i1 %33, label %35, label %34

34:                                               ; preds = %18
  call void (ptr, i32, ptr, ...) @av_log(ptr noundef null, i32 noundef 0, ptr noundef @.str.4, ptr noundef @.str.5, ptr noundef @.str.6, i32 noundef 774)
  call void @abort() #13
  unreachable

35:                                               ; preds = %18
  br label %36

36:                                               ; preds = %35
  br label %37

37:                                               ; preds = %36
  %38 = load ptr, ptr %3, align 8, !tbaa !38
  %39 = getelementptr inbounds nuw %struct.AVPixFmtDescriptor, ptr %38, i32 0, i32 2
  %40 = load i8, ptr %39, align 1, !tbaa !54
  %41 = call i1 @llvm.is.constant.i8(i8 %40)
  br i1 %41, label %53, label %42

42:                                               ; preds = %37
  %43 = load ptr, ptr %2, align 8, !tbaa !28
  %44 = getelementptr inbounds nuw %struct.AVFilterLink, ptr %43, i32 0, i32 6
  %45 = load i32, ptr %44, align 8, !tbaa !55
  %46 = sub nsw i32 0, %45
  %47 = load ptr, ptr %3, align 8, !tbaa !38
  %48 = getelementptr inbounds nuw %struct.AVPixFmtDescriptor, ptr %47, i32 0, i32 2
  %49 = load i8, ptr %48, align 1, !tbaa !54
  %50 = zext i8 %49 to i32
  %51 = ashr i32 %46, %50
  %52 = sub nsw i32 0, %51
  br label %69

53:                                               ; preds = %37
  %54 = load ptr, ptr %2, align 8, !tbaa !28
  %55 = getelementptr inbounds nuw %struct.AVFilterLink, ptr %54, i32 0, i32 6
  %56 = load i32, ptr %55, align 8, !tbaa !55
  %57 = load ptr, ptr %3, align 8, !tbaa !38
  %58 = getelementptr inbounds nuw %struct.AVPixFmtDescriptor, ptr %57, i32 0, i32 2
  %59 = load i8, ptr %58, align 1, !tbaa !54
  %60 = zext i8 %59 to i32
  %61 = shl i32 1, %60
  %62 = add nsw i32 %56, %61
  %63 = sub nsw i32 %62, 1
  %64 = load ptr, ptr %3, align 8, !tbaa !38
  %65 = getelementptr inbounds nuw %struct.AVPixFmtDescriptor, ptr %64, i32 0, i32 2
  %66 = load i8, ptr %65, align 1, !tbaa !54
  %67 = zext i8 %66 to i32
  %68 = ashr i32 %63, %67
  br label %69

69:                                               ; preds = %53, %42
  %70 = phi i32 [ %52, %42 ], [ %68, %53 ]
  %71 = load ptr, ptr %5, align 8, !tbaa !22
  %72 = getelementptr inbounds nuw %struct.MorphoContext, ptr %71, i32 0, i32 13
  %73 = getelementptr inbounds [4 x i32], ptr %72, i64 0, i64 2
  store i32 %70, ptr %73, align 4, !tbaa !24
  %74 = load ptr, ptr %5, align 8, !tbaa !22
  %75 = getelementptr inbounds nuw %struct.MorphoContext, ptr %74, i32 0, i32 13
  %76 = getelementptr inbounds [4 x i32], ptr %75, i64 0, i64 1
  store i32 %70, ptr %76, align 4, !tbaa !24
  %77 = load ptr, ptr %2, align 8, !tbaa !28
  %78 = getelementptr inbounds nuw %struct.AVFilterLink, ptr %77, i32 0, i32 6
  %79 = load i32, ptr %78, align 8, !tbaa !55
  %80 = load ptr, ptr %5, align 8, !tbaa !22
  %81 = getelementptr inbounds nuw %struct.MorphoContext, ptr %80, i32 0, i32 13
  %82 = getelementptr inbounds [4 x i32], ptr %81, i64 0, i64 3
  store i32 %79, ptr %82, align 4, !tbaa !24
  %83 = load ptr, ptr %5, align 8, !tbaa !22
  %84 = getelementptr inbounds nuw %struct.MorphoContext, ptr %83, i32 0, i32 13
  %85 = getelementptr inbounds [4 x i32], ptr %84, i64 0, i64 0
  store i32 %79, ptr %85, align 4, !tbaa !24
  %86 = load ptr, ptr %3, align 8, !tbaa !38
  %87 = getelementptr inbounds nuw %struct.AVPixFmtDescriptor, ptr %86, i32 0, i32 3
  %88 = load i8, ptr %87, align 2, !tbaa !56
  %89 = call i1 @llvm.is.constant.i8(i8 %88)
  br i1 %89, label %101, label %90

90:                                               ; preds = %69
  %91 = load ptr, ptr %2, align 8, !tbaa !28
  %92 = getelementptr inbounds nuw %struct.AVFilterLink, ptr %91, i32 0, i32 7
  %93 = load i32, ptr %92, align 4, !tbaa !57
  %94 = sub nsw i32 0, %93
  %95 = load ptr, ptr %3, align 8, !tbaa !38
  %96 = getelementptr inbounds nuw %struct.AVPixFmtDescriptor, ptr %95, i32 0, i32 3
  %97 = load i8, ptr %96, align 2, !tbaa !56
  %98 = zext i8 %97 to i32
  %99 = ashr i32 %94, %98
  %100 = sub nsw i32 0, %99
  br label %117

101:                                              ; preds = %69
  %102 = load ptr, ptr %2, align 8, !tbaa !28
  %103 = getelementptr inbounds nuw %struct.AVFilterLink, ptr %102, i32 0, i32 7
  %104 = load i32, ptr %103, align 4, !tbaa !57
  %105 = load ptr, ptr %3, align 8, !tbaa !38
  %106 = getelementptr inbounds nuw %struct.AVPixFmtDescriptor, ptr %105, i32 0, i32 3
  %107 = load i8, ptr %106, align 2, !tbaa !56
  %108 = zext i8 %107 to i32
  %109 = shl i32 1, %108
  %110 = add nsw i32 %104, %109
  %111 = sub nsw i32 %110, 1
  %112 = load ptr, ptr %3, align 8, !tbaa !38
  %113 = getelementptr inbounds nuw %struct.AVPixFmtDescriptor, ptr %112, i32 0, i32 3
  %114 = load i8, ptr %113, align 2, !tbaa !56
  %115 = zext i8 %114 to i32
  %116 = ashr i32 %111, %115
  br label %117

117:                                              ; preds = %101, %90
  %118 = phi i32 [ %100, %90 ], [ %116, %101 ]
  %119 = load ptr, ptr %5, align 8, !tbaa !22
  %120 = getelementptr inbounds nuw %struct.MorphoContext, ptr %119, i32 0, i32 14
  %121 = getelementptr inbounds [4 x i32], ptr %120, i64 0, i64 2
  store i32 %118, ptr %121, align 4, !tbaa !24
  %122 = load ptr, ptr %5, align 8, !tbaa !22
  %123 = getelementptr inbounds nuw %struct.MorphoContext, ptr %122, i32 0, i32 14
  %124 = getelementptr inbounds [4 x i32], ptr %123, i64 0, i64 1
  store i32 %118, ptr %124, align 4, !tbaa !24
  %125 = load ptr, ptr %2, align 8, !tbaa !28
  %126 = getelementptr inbounds nuw %struct.AVFilterLink, ptr %125, i32 0, i32 7
  %127 = load i32, ptr %126, align 4, !tbaa !57
  %128 = load ptr, ptr %5, align 8, !tbaa !22
  %129 = getelementptr inbounds nuw %struct.MorphoContext, ptr %128, i32 0, i32 14
  %130 = getelementptr inbounds [4 x i32], ptr %129, i64 0, i64 3
  store i32 %127, ptr %130, align 4, !tbaa !24
  %131 = load ptr, ptr %5, align 8, !tbaa !22
  %132 = getelementptr inbounds nuw %struct.MorphoContext, ptr %131, i32 0, i32 14
  %133 = getelementptr inbounds [4 x i32], ptr %132, i64 0, i64 0
  store i32 %127, ptr %133, align 4, !tbaa !24
  call void @llvm.lifetime.end.p0(i64 8, ptr %5) #12
  call void @llvm.lifetime.end.p0(i64 8, ptr %4) #12
  call void @llvm.lifetime.end.p0(i64 8, ptr %3) #12
  ret i32 0
}