; Function Attrs: nounwind uwtable
define internal noundef i32 @config_input_structure(ptr noundef readonly captures(none) %0) #0 {
  %2 = getelementptr inbounds nuw i8, ptr %0, i64 36
  %3 = load i32, ptr %2, align 4, !tbaa !29
  %4 = tail call ptr @av_pix_fmt_desc_get(i32 noundef %3) #14
  %5 = getelementptr inbounds nuw i8, ptr %0, i64 16
  %6 = load ptr, ptr %5, align 8, !tbaa !38
  %7 = getelementptr inbounds nuw i8, ptr %6, i64 32
  %8 = load ptr, ptr %7, align 8, !tbaa !57
  %9 = load ptr, ptr %8, align 8, !tbaa !58
  %10 = getelementptr inbounds nuw i8, ptr %9, i64 36
  %11 = load i32, ptr %10, align 4, !tbaa !29
  %12 = getelementptr inbounds nuw i8, ptr %8, i64 8
  %13 = load ptr, ptr %12, align 8, !tbaa !58
  %14 = getelementptr inbounds nuw i8, ptr %13, i64 36
  %15 = load i32, ptr %14, align 4, !tbaa !29
  %16 = icmp eq i32 %11, %15
  br i1 %16, label %18, label %17

17:                                               ; preds = %1
  tail call void (ptr, i32, ptr, ...) @av_log(ptr noundef null, i32 noundef 0, ptr noundef nonnull @.str.4, ptr noundef nonnull @.str.5, ptr noundef nonnull @.str.6, i32 noundef 774) #14
  tail call void @abort() #15
  unreachable

18:                                               ; preds = %1
  %19 = getelementptr inbounds nuw i8, ptr %6, i64 72
  %20 = load ptr, ptr %19, align 8, !tbaa !4
  %21 = getelementptr inbounds nuw i8, ptr %0, i64 40
  %22 = load i32, ptr %21, align 8, !tbaa !52
  %23 = sub nsw i32 0, %22
  %24 = getelementptr inbounds nuw i8, ptr %4, i64 9
  %25 = load i8, ptr %24, align 1, !tbaa !53
  %26 = zext nneg i8 %25 to i32
  %27 = ashr i32 %23, %26
  %28 = sub nsw i32 0, %27
  %29 = getelementptr inbounds nuw i8, ptr %20, i64 22100
  %30 = getelementptr inbounds nuw i8, ptr %20, i64 22108
  store i32 %28, ptr %30, align 4, !tbaa !54
  %31 = getelementptr inbounds nuw i8, ptr %20, i64 22104
  store i32 %28, ptr %31, align 4, !tbaa !54
  %32 = getelementptr inbounds nuw i8, ptr %0, i64 40
  %33 = load i32, ptr %32, align 8, !tbaa !52
  %34 = getelementptr inbounds nuw i8, ptr %20, i64 22112
  store i32 %33, ptr %34, align 4, !tbaa !54
  store i32 %33, ptr %29, align 4, !tbaa !54
  %35 = getelementptr inbounds nuw i8, ptr %0, i64 44
  %36 = load i32, ptr %35, align 4, !tbaa !55
  %37 = sub nsw i32 0, %36
  %38 = getelementptr inbounds nuw i8, ptr %4, i64 10
  %39 = load i8, ptr %38, align 2, !tbaa !56
  %40 = zext nneg i8 %39 to i32
  %41 = ashr i32 %37, %40
  %42 = sub nsw i32 0, %41
  %43 = getelementptr inbounds nuw i8, ptr %20, i64 22116
  %44 = getelementptr inbounds nuw i8, ptr %20, i64 22124
  store i32 %42, ptr %44, align 4, !tbaa !54
  %45 = getelementptr inbounds nuw i8, ptr %20, i64 22120
  store i32 %42, ptr %45, align 4, !tbaa !54
  %46 = getelementptr inbounds nuw i8, ptr %0, i64 44
  %47 = load i32, ptr %46, align 4, !tbaa !55
  %48 = getelementptr inbounds nuw i8, ptr %20, i64 22128
  store i32 %47, ptr %48, align 4, !tbaa !54
  store i32 %47, ptr %43, align 4, !tbaa !54
  ret i32 0
}